; Function Attrs: mustprogress uwtable
define hidden void @_ZN20bit_blaster_rewriter4pushEv(ptr nocapture noundef nonnull readonly align 8 dereferenceable(8) %this) local_unnamed_addr #3 align 2 {
entry:
  %0 = load ptr, ptr %this, align 8
  %m_keyval_lim.i.i = getelementptr inbounds i8, ptr %0, i64 800
  %m_nodes.i.i.i = getelementptr inbounds i8, ptr %0, i64 776
  %1 = load ptr, ptr %m_nodes.i.i.i, align 8
  %cmp.i.i.i.i = icmp eq ptr %1, null
  br i1 %cmp.i.i.i.i, label %_ZNK15ref_vector_coreI9func_decl19ref_manager_wrapperIS0_11ast_managerEE4sizeEv.exit.i.i, label %if.end.i.i.i.i

if.end.i.i.i.i:                                   ; preds = %entry
  %arrayidx.i.i.i.i = getelementptr inbounds i8, ptr %1, i64 -4
  %2 = load i32, ptr %arrayidx.i.i.i.i, align 4
  br label %_ZNK15ref_vector_coreI9func_decl19ref_manager_wrapperIS0_11ast_managerEE4sizeEv.exit.i.i

_ZNK15ref_vector_coreI9func_decl19ref_manager_wrapperIS0_11ast_managerEE4sizeEv.exit.i.i: ; preds = %if.end.i.i.i.i, %entry
  %retval.0.i.i.i.i = phi i32 [ %2, %if.end.i.i.i.i ], [ 0, %entry ]
  %3 = load ptr, ptr %m_keyval_lim.i.i, align 8
  %cmp.i.i.i = icmp eq ptr %3, null
  br i1 %cmp.i.i.i, label %if.then.i.i.i, label %lor.lhs.false.i.i.i

lor.lhs.false.i.i.i:                              ; preds = %_ZNK15ref_vector_coreI9func_decl19ref_manager_wrapperIS0_11ast_managerEE4sizeEv.exit.i.i
  %arrayidx.i.i.i = getelementptr inbounds i8, ptr %3, i64 -4
  %4 = load i32, ptr %arrayidx.i.i.i, align 4
  %arrayidx4.i.i.i = getelementptr inbounds i8, ptr %3, i64 -8
  %5 = load i32, ptr %arrayidx4.i.i.i, align 4
  %cmp5.i.i.i = icmp eq i32 %4, %5
  br i1 %cmp5.i.i.i, label %if.then.i.i.i, label %_ZN6vectorIjLb0EjE9push_backEOj.exit.i.i

if.then.i.i.i:                                    ; preds = %lor.lhs.false.i.i.i, %_ZNK15ref_vector_coreI9func_decl19ref_manager_wrapperIS0_11ast_managerEE4sizeEv.exit.i.i
  tail call void @_ZN6vectorIjLb0EjE13expand_vectorEv(ptr noundef nonnull align 8 dereferenceable(8) %m_keyval_lim.i.i)
  %.pre.i.i.i = load ptr, ptr %m_keyval_lim.i.i, align 8
  %arrayidx8.phi.trans.insert.i.i.i = getelementptr inbounds i8, ptr %.pre.i.i.i, i64 -4
  %.pre1.i.i.i = load i32, ptr %arrayidx8.phi.trans.insert.i.i.i, align 4
  br label %_ZN6vectorIjLb0EjE9push_backEOj.exit.i.i

_ZN6vectorIjLb0EjE9push_backEOj.exit.i.i:         ; preds = %if.then.i.i.i, %lor.lhs.false.i.i.i
  %6 = phi i32 [ %.pre1.i.i.i, %if.then.i.i.i ], [ %4, %lor.lhs.false.i.i.i ]
  %7 = phi ptr [ %.pre.i.i.i, %if.then.i.i.i ], [ %3, %lor.lhs.false.i.i.i ]
  %idx.ext.i.i.i = zext i32 %6 to i64
  %add.ptr.i.i.i = getelementptr inbounds i32, ptr %7, i64 %idx.ext.i.i.i
  store i32 %retval.0.i.i.i.i, ptr %add.ptr.i.i.i, align 4
  %8 = load ptr, ptr %m_keyval_lim.i.i, align 8
  %arrayidx10.i.i.i = getelementptr inbounds i8, ptr %8, i64 -4
  %9 = load i32, ptr %arrayidx10.i.i.i, align 4
  %inc.i.i.i = add i32 %9, 1
  store i32 %inc.i.i.i, ptr %arrayidx10.i.i.i, align 4
  %m_newbits_lim.i.i = getelementptr inbounds i8, ptr %0, i64 824
  %m_nodes.i1.i.i = getelementptr inbounds i8, ptr %0, i64 816
  %10 = load ptr, ptr %m_nodes.i1.i.i, align 8
  %cmp.i.i2.i.i = icmp eq ptr %10, null
  br i1 %cmp.i.i2.i.i, label %_ZNK15ref_vector_coreI9func_decl19ref_manager_wrapperIS0_11ast_managerEE4sizeEv.exit6.i.i, label %if.end.i.i3.i.i

if.end.i.i3.i.i:                                  ; preds = %_ZN6vectorIjLb0EjE9push_backEOj.exit.i.i
  %arrayidx.i.i4.i.i = getelementptr inbounds i8, ptr %10, i64 -4
  %11 = load i32, ptr %arrayidx.i.i4.i.i, align 4
  br label %_ZNK15ref_vector_coreI9func_decl19ref_manager_wrapperIS0_11ast_managerEE4sizeEv.exit6.i.i

_ZNK15ref_vector_coreI9func_decl19ref_manager_wrapperIS0_11ast_managerEE4sizeEv.exit6.i.i: ; preds = %if.end.i.i3.i.i, %_ZN6vectorIjLb0EjE9push_backEOj.exit.i.i
  %retval.0.i.i5.i.i = phi i32 [ %11, %if.end.i.i3.i.i ], [ 0, %_ZN6vectorIjLb0EjE9push_backEOj.exit.i.i ]
  %12 = load ptr, ptr %m_newbits_lim.i.i, align 8
  %cmp.i7.i.i = icmp eq ptr %12, null
  br i1 %cmp.i7.i.i, label %if.then.i16.i.i, label %lor.lhs.false.i8.i.i

lor.lhs.false.i8.i.i:                             ; preds = %_ZNK15ref_vector_coreI9func_decl19ref_manager_wrapperIS0_11ast_managerEE4sizeEv.exit6.i.i
  %arrayidx.i9.i.i = getelementptr inbounds i8, ptr %12, i64 -4
  %13 = load i32, ptr %arrayidx.i9.i.i, align 4
  %arrayidx4.i10.i.i = getelementptr inbounds i8, ptr %12, i64 -8
  %14 = load i32, ptr %arrayidx4.i10.i.i, align 4
  %cmp5.i11.i.i = icmp eq i32 %13, %14
  br i1 %cmp5.i11.i.i, label %if.then.i16.i.i, label %_ZN20bit_blaster_rewriter3imp4pushEv.exit

if.then.i16.i.i:                                  ; preds = %lor.lhs.false.i8.i.i, %_ZNK15ref_vector_coreI9func_decl19ref_manager_wrapperIS0_11ast_managerEE4sizeEv.exit6.i.i
  tail call void @_ZN6vectorIjLb0EjE13expand_vectorEv(ptr noundef nonnull align 8 dereferenceable(8) %m_newbits_lim.i.i)
  %.pre.i17.i.i = load ptr, ptr %m_newbits_lim.i.i, align 8
  %arrayidx8.phi.trans.insert.i18.i.i = getelementptr inbounds i8, ptr %.pre.i17.i.i, i64 -4
  %.pre1.i19.i.i = load i32, ptr %arrayidx8.phi.trans.insert.i18.i.i, align 4
  br label %_ZN20bit_blaster_rewriter3imp4pushEv.exit

_ZN20bit_blaster_rewriter3imp4pushEv.exit:        ; preds = %lor.lhs.false.i8.i.i, %if.then.i16.i.i
  %15 = phi i32 [ %.pre1.i19.i.i, %if.then.i16.i.i ], [ %13, %lor.lhs.false.i8.i.i ]
  %16 = phi ptr [ %.pre.i17.i.i, %if.then.i16.i.i ], [ %12, %lor.lhs.false.i8.i.i ]
  %idx.ext.i12.i.i = zext i32 %15 to i64
  %add.ptr.i13.i.i = getelementptr inbounds i32, ptr %16, i64 %idx.ext.i12.i.i
  store i32 %retval.0.i.i5.i.i, ptr %add.ptr.i13.i.i, align 4
  %17 = load ptr, ptr %m_newbits_lim.i.i, align 8
  %arrayidx10.i14.i.i = getelementptr inbounds i8, ptr %17, i64 -4
  %18 = load i32, ptr %arrayidx10.i14.i.i, align 4
  %inc.i15.i.i = add i32 %18, 1
  store i32 %inc.i15.i.i, ptr %arrayidx10.i14.i.i, align 4
  ret void
}